target datalayout = "e-m:e-p270:32:32-p271:32:32-p272:64:64-i64:64-i128:128-f80:128-n8:16:32:64-S128"
target triple = "x86_64-pc-linux-gnu"

@.str.105 = private unnamed_addr constant [8 x i8] c"unknown\00", align 1
@.str.140 = private unnamed_addr constant [13 x i8] c"close notify\00", align 1
@.str.141 = private unnamed_addr constant [19 x i8] c"unexpected message\00", align 1
@.str.142 = private unnamed_addr constant [15 x i8] c"bad record mac\00", align 1
@.str.143 = private unnamed_addr constant [22 x i8] c"decompression failure\00", align 1
@.str.144 = private unnamed_addr constant [18 x i8] c"handshake failure\00", align 1
@.str.145 = private unnamed_addr constant [15 x i8] c"no certificate\00", align 1
@.str.146 = private unnamed_addr constant [16 x i8] c"bad certificate\00", align 1
@.str.147 = private unnamed_addr constant [24 x i8] c"unsupported certificate\00", align 1
@.str.148 = private unnamed_addr constant [20 x i8] c"certificate revoked\00", align 1
@.str.149 = private unnamed_addr constant [20 x i8] c"certificate expired\00", align 1
@.str.150 = private unnamed_addr constant [20 x i8] c"certificate unknown\00", align 1
@.str.151 = private unnamed_addr constant [18 x i8] c"illegal parameter\00", align 1
@.str.152 = private unnamed_addr constant [18 x i8] c"decryption failed\00", align 1
@.str.153 = private unnamed_addr constant [16 x i8] c"record overflow\00", align 1
@.str.154 = private unnamed_addr constant [11 x i8] c"unknown CA\00", align 1
@.str.155 = private unnamed_addr constant [14 x i8] c"access denied\00", align 1
@.str.156 = private unnamed_addr constant [13 x i8] c"decode error\00", align 1
@.str.157 = private unnamed_addr constant [14 x i8] c"decrypt error\00", align 1
@.str.158 = private unnamed_addr constant [19 x i8] c"export restriction\00", align 1
@.str.159 = private unnamed_addr constant [17 x i8] c"protocol version\00", align 1
@.str.160 = private unnamed_addr constant [22 x i8] c"insufficient security\00", align 1
@.str.161 = private unnamed_addr constant [15 x i8] c"internal error\00", align 1
@.str.162 = private unnamed_addr constant [14 x i8] c"user canceled\00", align 1
@.str.163 = private unnamed_addr constant [17 x i8] c"no renegotiation\00", align 1
@.str.164 = private unnamed_addr constant [22 x i8] c"unsupported extension\00", align 1
@.str.165 = private unnamed_addr constant [25 x i8] c"certificate unobtainable\00", align 1
@.str.166 = private unnamed_addr constant [18 x i8] c"unrecognized name\00", align 1
@.str.167 = private unnamed_addr constant [32 x i8] c"bad certificate status response\00", align 1
@.str.168 = private unnamed_addr constant [27 x i8] c"bad certificate hash value\00", align 1
@.str.169 = private unnamed_addr constant [21 x i8] c"unknown PSK identity\00", align 1
@.str.170 = private unnamed_addr constant [24 x i8] c"no application protocol\00", align 1

; Function Attrs: nounwind uwtable
define ptr @SSL_alert_desc_string_long(i32 noundef %0) #0 {
  %2 = alloca ptr, align 8
  %3 = alloca i32, align 4
  store i32 %0, ptr %3, align 4, !tbaa !19
  %4 = load i32, ptr %3, align 4, !tbaa !19
  %5 = and i32 %4, 255
  switch i32 %5, label %37 [
    i32 0, label %6
    i32 10, label %7
    i32 20, label %8
    i32 30, label %9
    i32 40, label %10
    i32 41, label %11
    i32 42, label %12
    i32 43, label %13
    i32 44, label %14
    i32 45, label %15
    i32 46, label %16
    i32 47, label %17
    i32 21, label %18
    i32 22, label %19
    i32 48, label %20
    i32 49, label %21
    i32 50, label %22
    i32 51, label %23
    i32 60, label %24
    i32 70, label %25
    i32 71, label %26
    i32 80, label %27
    i32 90, label %28
    i32 100, label %29
    i32 110, label %30
    i32 111, label %31
    i32 112, label %32
    i32 113, label %33
    i32 114, label %34
    i32 115, label %35
    i32 120, label %36
  ]

6:                                                ; preds = %1
  store ptr @.str.140, ptr %2, align 8
  br label %38

7:                                                ; preds = %1
  store ptr @.str.141, ptr %2, align 8
  br label %38

8:                                                ; preds = %1
  store ptr @.str.142, ptr %2, align 8
  br label %38

9:                                                ; preds = %1
  store ptr @.str.143, ptr %2, align 8
  br label %38

10:                                               ; preds = %1
  store ptr @.str.144, ptr %2, align 8
  br label %38

11:                                               ; preds = %1
  store ptr @.str.145, ptr %2, align 8
  br label %38

12:                                               ; preds = %1
  store ptr @.str.146, ptr %2, align 8
  br label %38

13:                                               ; preds = %1
  store ptr @.str.147, ptr %2, align 8
  br label %38

14:                                               ; preds = %1
  store ptr @.str.148, ptr %2, align 8
  br label %38

15:                                               ; preds = %1
  store ptr @.str.149, ptr %2, align 8
  br label %38

16:                                               ; preds = %1
  store ptr @.str.150, ptr %2, align 8
  br label %38

17:                                               ; preds = %1
  store ptr @.str.151, ptr %2, align 8
  br label %38

18:                                               ; preds = %1
  store ptr @.str.152, ptr %2, align 8
  br label %38

19:                                               ; preds = %1
  store ptr @.str.153, ptr %2, align 8
  br label %38

20:                                               ; preds = %1
  store ptr @.str.154, ptr %2, align 8
  br label %38

21:                                               ; preds = %1
  store ptr @.str.155, ptr %2, align 8
  br label %38

22:                                               ; preds = %1
  store ptr @.str.156, ptr %2, align 8
  br label %38

23:                                               ; preds = %1
  store ptr @.str.157, ptr %2, align 8
  br label %38

24:                                               ; preds = %1
  store ptr @.str.158, ptr %2, align 8
  br label %38

25:                                               ; preds = %1
  store ptr @.str.159, ptr %2, align 8
  br label %38

26:                                               ; preds = %1
  store ptr @.str.160, ptr %2, align 8
  br label %38

27:                                               ; preds = %1
  store ptr @.str.161, ptr %2, align 8
  br label %38

28:                                               ; preds = %1
  store ptr @.str.162, ptr %2, align 8
  br label %38

29:                                               ; preds = %1
  store ptr @.str.163, ptr %2, align 8
  br label %38

30:                                               ; preds = %1
  store ptr @.str.164, ptr %2, align 8
  br label %38

31:                                               ; preds = %1
  store ptr @.str.165, ptr %2, align 8
  br label %38

32:                                               ; preds = %1
  store ptr @.str.166, ptr %2, align 8
  br label %38

33:                                               ; preds = %1
  store ptr @.str.167, ptr %2, align 8
  br label %38

34:                                               ; preds = %1
  store ptr @.str.168, ptr %2, align 8
  br label %38

35:                                               ; preds = %1
  store ptr @.str.169, ptr %2, align 8
  br label %38

36:                                               ; preds = %1
  store ptr @.str.170, ptr %2, align 8
  br label %38

37:                                               ; preds = %1
  store ptr @.str.105, ptr %2, align 8
  br label %38

38:                                               ; preds = %37, %36, %35, %34, %33, %32, %31, %30, %29, %28, %27, %26, %25, %24, %23, %22, %21, %20, %19, %18, %17, %16, %15, %14, %13, %12, %11, %10, %9, %8, %7, %6
  %39 = load ptr, ptr %2, align 8
  ret ptr %39
}