; Function Attrs: mustprogress nofree norecurse nosync nounwind willreturn memory(none) uwtable
define noundef nonnull ptr @SSL_alert_desc_string_long(i32 noundef %0) local_unnamed_addr #2 {
  %trunc = trunc i32 %0 to i8
  switch i8 %trunc, label %32 [
    i8 0, label %33
    i8 10, label %2
    i8 20, label %3
    i8 30, label %4
    i8 40, label %5
    i8 41, label %6
    i8 42, label %7
    i8 43, label %8
    i8 44, label %9
    i8 45, label %10
    i8 46, label %11
    i8 47, label %12
    i8 21, label %13
    i8 22, label %14
    i8 48, label %15
    i8 49, label %16
    i8 50, label %17
    i8 51, label %18
    i8 60, label %19
    i8 70, label %20
    i8 71, label %21
    i8 80, label %22
    i8 90, label %23
    i8 100, label %24
    i8 110, label %25
    i8 111, label %26
    i8 112, label %27
    i8 113, label %28
    i8 114, label %29
    i8 115, label %30
    i8 120, label %31
  ]

2:                                                ; preds = %1
  br label %33

3:                                                ; preds = %1
  br label %33

4:                                                ; preds = %1
  br label %33

5:                                                ; preds = %1
  br label %33

6:                                                ; preds = %1
  br label %33

7:                                                ; preds = %1
  br label %33

8:                                                ; preds = %1
  br label %33

9:                                                ; preds = %1
  br label %33

10:                                               ; preds = %1
  br label %33

11:                                               ; preds = %1
  br label %33

12:                                               ; preds = %1
  br label %33

13:                                               ; preds = %1
  br label %33

14:                                               ; preds = %1
  br label %33

15:                                               ; preds = %1
  br label %33

16:                                               ; preds = %1
  br label %33

17:                                               ; preds = %1
  br label %33

18:                                               ; preds = %1
  br label %33

19:                                               ; preds = %1
  br label %33

20:                                               ; preds = %1
  br label %33

21:                                               ; preds = %1
  br label %33

22:                                               ; preds = %1
  br label %33

23:                                               ; preds = %1
  br label %33

24:                                               ; preds = %1
  br label %33

25:                                               ; preds = %1
  br label %33

26:                                               ; preds = %1
  br label %33

27:                                               ; preds = %1
  br label %33

28:                                               ; preds = %1
  br label %33

29:                                               ; preds = %1
  br label %33

30:                                               ; preds = %1
  br label %33

31:                                               ; preds = %1
  br label %33

32:                                               ; preds = %1
  br label %33

33:                                               ; preds = %1, %32, %31, %30, %29, %28, %27, %26, %25, %24, %23, %22, %21, %20, %19, %18, %17, %16, %15, %14, %13, %12, %11, %10, %9, %8, %7, %6, %5, %4, %3, %2
  %.0 = phi ptr [ @.str.105, %32 ], [ @.str.170, %31 ], [ @.str.169, %30 ], [ @.str.168, %29 ], [ @.str.167, %28 ], [ @.str.166, %27 ], [ @.str.165, %26 ], [ @.str.164, %25 ], [ @.str.163, %24 ], [ @.str.162, %23 ], [ @.str.161, %22 ], [ @.str.160, %21 ], [ @.str.159, %20 ], [ @.str.158, %19 ], [ @.str.157, %18 ], [ @.str.156, %17 ], [ @.str.155, %16 ], [ @.str.154, %15 ], [ @.str.153, %14 ], [ @.str.152, %13 ], [ @.str.151, %12 ], [ @.str.150, %11 ], [ @.str.149, %10 ], [ @.str.148, %9 ], [ @.str.147, %8 ], [ @.str.146, %7 ], [ @.str.145, %6 ], [ @.str.144, %5 ], [ @.str.143, %4 ], [ @.str.142, %3 ], [ @.str.141, %2 ], [ @.str.140, %1 ]
  ret ptr %.0
}